; Function Attrs: nounwind sspstrong uwtable
define internal i64 @rb_struct_to_a(i64 noundef %0) #0 {
  %2 = inttoptr i64 %0 to ptr
  %3 = load i64, ptr %2, align 8, !tbaa !11
  %4 = and i64 %3, 1040384
  %.not.i = icmp eq i64 %4, 0
  br i1 %.not.i, label %9, label %5

5:                                                ; preds = %1
  %6 = lshr i64 %3, 13
  %7 = and i64 %6, 127
  %8 = getelementptr inbounds nuw i8, ptr %2, i64 16
  br label %RSTRUCT_CONST_PTR.exit

9:                                                ; preds = %1
  %10 = getelementptr inbounds nuw i8, ptr %2, i64 16
  %11 = load i64, ptr %10, align 8, !tbaa !13
  %12 = getelementptr inbounds nuw i8, ptr %2, i64 24
  %13 = load ptr, ptr %12, align 8, !tbaa !13
  br label %RSTRUCT_CONST_PTR.exit

RSTRUCT_CONST_PTR.exit:                           ; preds = %5, %9
  %.0.i5 = phi i64 [ %7, %5 ], [ %11, %9 ]
  %.0.i3 = phi ptr [ %8, %5 ], [ %13, %9 ]
  %14 = tail call i64 @rb_ary_new_from_values(i64 noundef %.0.i5, ptr noundef %.0.i3) #19
  ret i64 %14
}